target datalayout = "e-m:e-p270:32:32-p271:32:32-p272:64:64-i64:64-i128:128-f80:128-n8:16:32:64-S128"
target triple = "x86_64-pc-linux-gnu"

%struct.AVCodecContext = type { ptr, i32, i32, ptr, i32, i32, ptr, ptr, ptr, i64, i32, i32, ptr, i32, %struct.AVRational, %struct.AVRational, %struct.AVRational, i32, i32, i32, i32, i32, %struct.AVRational, i32, i32, i32, i32, i32, i32, i32, i32, i32, i32, i32, ptr, ptr, i32, float, float, float, float, float, float, float, float, float, i32, i32, i32, i32, i32, i32, i32, i32, i32, i32, i32, i32, ptr, ptr, ptr, i32, i32, i32, i32, i32, i32, i32, i32, i32, i32, %struct.AVChannelLayout, i32, i32, i32, i32, i32, i32, i32, i32, ptr, i32, i32, i32, float, float, i32, i32, i32, i32, i32, ptr, i64, i64, float, float, i32, i32, ptr, ptr, i32, i32, i32, i32, i32, ptr, ptr, ptr, ptr, i32, i32, [8 x i64], i32, i32, i32, i32, i32, i32, i32, ptr, ptr, i32, i32, i32, i32, i32, i32, i32, i32, i32, i32, ptr, ptr, i32, i32, ptr, ptr, ptr, ptr, i32, i32, i64, i32, i32, i64, ptr, i64, ptr, i32, ptr, i32 }
%struct.AVRational = type { i32, i32 }
%struct.AVChannelLayout = type { i32, i32, %union.anon.1, ptr }
%union.anon.1 = type { i64 }
%struct.DNXHDEncContext = type { ptr, %struct.MPVEncContext, i32, i32, i32, i32, ptr, ptr, ptr, ptr, [32 x ptr], i32, i32, i32, i32, i32, i32, i32, i32, i32, i32, i32, [4 x i8], [12 x [64 x i16]], [512 x i8], [2 x [512 x i8]], ptr, ptr, ptr, ptr, i32, [3 x ptr], ptr, ptr, ptr, ptr, ptr, ptr, i32, i32, i32, ptr, ptr, ptr, ptr, ptr, ptr }
%struct.MPVEncContext = type { %struct.MpegEncContext, %struct.PutBitContext, i32, i32, ptr, i32, i32, i32, i32, i32, i32, i32, i32, ptr, ptr, %struct.FDCTDSPContext, %struct.MpegvideoEncDSPContext, %struct.PixblockDSPContext, %struct.MotionEstContext, i32, i32, ptr, ptr, ptr, ptr, ptr, ptr, [2 x [2 x [2 x ptr]]], [2 x ptr], [2 x [2 x ptr]], ptr, ptr, ptr, ptr, [3 x i64], i32, i32, i32, i32, i32, ptr, ptr, ptr, ptr, ptr, ptr, ptr, [12 x i32], ptr, ptr, ptr, ptr, ptr, ptr, ptr, ptr, [2 x i32], ptr, i32, i32, i32, i32, i32, i32, i32, i32, i32, i32, ptr, ptr, i32, i32, %struct.PutBitContext, %struct.PutBitContext, i32, i32, i32, i32, ptr, ptr, ptr, [2 x ptr], [2 x ptr], [2 x ptr], [2 x ptr], ptr, i32 }
%struct.MpegEncContext = type { ptr, i32, i32, i32, [12 x i32], i32, %struct.ScanTable, %struct.ScanTable, [64 x i8], [64 x i8], ptr, ptr, i32, i32, i32, i32, i32, i32, i32, i32, i32, i32, i32, i32, i32, i32, i32, i32, i32, i32, i32, i32, i64, i64, ptr, %struct.BufferPoolContext, i32, i32, %union.anon.2, i32, %struct.MPVWorkPicture, %struct.MPVWorkPicture, %struct.MPVWorkPicture, i32, [3 x i32], ptr, [3 x ptr], ptr, ptr, ptr, ptr, ptr, ptr, [3 x ptr], i32, ptr, ptr, ptr, ptr, %struct.ScratchpadContext, i32, i32, i32, i32, i32, i32, %struct.BlockDSPContext, %struct.H264ChromaContext, %struct.HpelDSPContext, %struct.IDCTDSPContext, %struct.QpelDSPContext, %struct.VideoDSPContext, %struct.H263DSPContext, ptr, [2 x [2 x ptr]], i32, i32, [2 x [4 x [2 x i32]]], [2 x [2 x i32]], [2 x [2 x [2 x i32]]], [2 x [64 x i16]], i32, i32, i32, i32, i32, [6 x i32], [6 x i32], [3 x ptr], ptr, [64 x i16], [64 x i16], [64 x i16], [64 x i16], i32, i32, %struct.GetBitContext, i32, i32, i32, i32, i32, i32, i32, i32, i32, i32, i32, i32, i32, i32, i32, i64, i64, i16, i16, i16, i16, i32, i32, i32, i32, i32, i32, i32, i32, i32, [3 x i32], i32, i32, i32, i32, i32, i32, %struct.GetBitContext, i32, [2 x [2 x i32]], i32, i32, i32, i32, i32, i32, i32, i32, i32, i32, i32, i32, i32, i32, [2 x i32], i32, i32, ptr, ptr, ptr, ptr, ptr, i32, i32, %struct.ERContext }
%struct.ScanTable = type { ptr, [64 x i8], [64 x i8] }
%struct.BufferPoolContext = type { ptr, ptr, ptr, ptr, ptr, i32, i32, i32 }
%union.anon.2 = type { [32 x ptr] }
%struct.MPVWorkPicture = type { [3 x ptr], [3 x i64], ptr, ptr, [2 x ptr], ptr, ptr, [2 x ptr], i32 }
%struct.ScratchpadContext = type { ptr, ptr, %union.anon.3, i32 }
%union.anon.3 = type { ptr }
%struct.BlockDSPContext = type { ptr, ptr, [2 x ptr] }
%struct.H264ChromaContext = type { [4 x ptr], [4 x ptr] }
%struct.HpelDSPContext = type { [4 x [4 x ptr]], [4 x [4 x ptr]], [4 x [4 x ptr]], [4 x ptr] }
%struct.IDCTDSPContext = type { ptr, ptr, ptr, ptr, ptr, ptr, [64 x i8], i32, i32 }
%struct.QpelDSPContext = type { [2 x [16 x ptr]], [2 x [16 x ptr]], [2 x [16 x ptr]] }
%struct.VideoDSPContext = type { ptr, ptr }
%struct.H263DSPContext = type { ptr, ptr }
%struct.GetBitContext = type { ptr, ptr, i32, i32, i32 }
%struct.ERContext = type { ptr, ptr, i32, ptr, i32, i32, i32, i64, i64, i32, i32, ptr, ptr, [3 x ptr], ptr, ptr, [2 x [4 x [2 x i32]]], %struct.ERPicture, %struct.ERPicture, %struct.ERPicture, [2 x ptr], [2 x ptr], i16, i16, i32, i32, ptr, ptr }
%struct.ERPicture = type { ptr, ptr, ptr, [2 x ptr], [2 x ptr], ptr, i32 }
%struct.FDCTDSPContext = type { ptr, ptr }
%struct.MpegvideoEncDSPContext = type { ptr, ptr, ptr, ptr, [4 x ptr], ptr }
%struct.PixblockDSPContext = type { ptr, ptr, ptr, ptr }
%struct.MotionEstContext = type { ptr, i32, i32, [4 x [2 x i32]], [4 x [2 x i32]], ptr, ptr, i32, i32, i32, i32, i32, i32, i32, i32, i32, i32, i32, i32, i32, i32, i32, i32, [4 x [4 x ptr]], [4 x [4 x ptr]], i32, i32, i64, i64, i32, [6 x ptr], [6 x ptr], [6 x ptr], [6 x ptr], [2 x [4 x ptr]], ptr, ptr, ptr, ptr, ptr, ptr, ptr, ptr, [64 x i32], [64 x i32] }
%struct.PutBitContext = type { i32, i32, ptr, ptr, ptr }

; Function Attrs: cold nounwind optsize uwtable
define internal i32 @dnxhd_init_rc(ptr noundef %0) #0 {
  %2 = alloca i32, align 4
  %3 = alloca ptr, align 8
  store ptr %0, ptr %3, align 8, !tbaa !29
  %4 = load ptr, ptr %3, align 8, !tbaa !29
  %5 = getelementptr inbounds nuw %struct.DNXHDEncContext, ptr %4, i32 0, i32 1
  %6 = getelementptr inbounds nuw %struct.MPVEncContext, ptr %5, i32 0, i32 0
  %7 = getelementptr inbounds nuw %struct.MpegEncContext, ptr %6, i32 0, i32 10
  %8 = load ptr, ptr %7, align 8, !tbaa !74
  %9 = getelementptr inbounds nuw %struct.AVCodecContext, ptr %8, i32 0, i32 87
  %10 = load i32, ptr %9, align 8, !tbaa !102
  %11 = add nsw i32 %10, 1
  %12 = load ptr, ptr %3, align 8, !tbaa !29
  %13 = getelementptr inbounds nuw %struct.DNXHDEncContext, ptr %12, i32 0, i32 1
  %14 = getelementptr inbounds nuw %struct.MPVEncContext, ptr %13, i32 0, i32 0
  %15 = getelementptr inbounds nuw %struct.MpegEncContext, ptr %14, i32 0, i32 31
  %16 = load i32, ptr %15, align 4, !tbaa !85
  %17 = mul nsw i32 %11, %16
  %18 = sext i32 %17 to i64
  %19 = call noalias ptr @av_calloc(i64 noundef %18, i64 noundef 8)
  %20 = load ptr, ptr %3, align 8, !tbaa !29
  %21 = getelementptr inbounds nuw %struct.DNXHDEncContext, ptr %20, i32 0, i32 45
  store ptr %19, ptr %21, align 16, !tbaa !170
  %22 = icmp ne ptr %19, null
  br i1 %22, label %24, label %23

23:                                               ; preds = %1
  store i32 -12, ptr %2, align 4
  br label %77

24:                                               ; preds = %1
  %25 = load ptr, ptr %3, align 8, !tbaa !29
  %26 = getelementptr inbounds nuw %struct.DNXHDEncContext, ptr %25, i32 0, i32 1
  %27 = getelementptr inbounds nuw %struct.MPVEncContext, ptr %26, i32 0, i32 0
  %28 = getelementptr inbounds nuw %struct.MpegEncContext, ptr %27, i32 0, i32 10
  %29 = load ptr, ptr %28, align 8, !tbaa !74
  %30 = getelementptr inbounds nuw %struct.AVCodecContext, ptr %29, i32 0, i32 57
  %31 = load i32, ptr %30, align 4, !tbaa !114
  %32 = icmp ne i32 %31, 2
  br i1 %32, label %33, label %57

33:                                               ; preds = %24
  %34 = load ptr, ptr %3, align 8, !tbaa !29
  %35 = getelementptr inbounds nuw %struct.DNXHDEncContext, ptr %34, i32 0, i32 1
  %36 = getelementptr inbounds nuw %struct.MPVEncContext, ptr %35, i32 0, i32 0
  %37 = getelementptr inbounds nuw %struct.MpegEncContext, ptr %36, i32 0, i32 31
  %38 = load i32, ptr %37, align 4, !tbaa !85
  %39 = sext i32 %38 to i64
  %40 = call noalias ptr @av_calloc(i64 noundef %39, i64 noundef 8)
  %41 = load ptr, ptr %3, align 8, !tbaa !29
  %42 = getelementptr inbounds nuw %struct.DNXHDEncContext, ptr %41, i32 0, i32 43
  store ptr %40, ptr %42, align 16, !tbaa !171
  %43 = icmp ne ptr %40, null
  br i1 %43, label %44, label %55

44:                                               ; preds = %33
  %45 = load ptr, ptr %3, align 8, !tbaa !29
  %46 = getelementptr inbounds nuw %struct.DNXHDEncContext, ptr %45, i32 0, i32 1
  %47 = getelementptr inbounds nuw %struct.MPVEncContext, ptr %46, i32 0, i32 0
  %48 = getelementptr inbounds nuw %struct.MpegEncContext, ptr %47, i32 0, i32 31
  %49 = load i32, ptr %48, align 4, !tbaa !85
  %50 = sext i32 %49 to i64
  %51 = call noalias ptr @av_calloc(i64 noundef %50, i64 noundef 8)
  %52 = load ptr, ptr %3, align 8, !tbaa !29
  %53 = getelementptr inbounds nuw %struct.DNXHDEncContext, ptr %52, i32 0, i32 44
  store ptr %51, ptr %53, align 8, !tbaa !172
  %54 = icmp ne ptr %51, null
  br i1 %54, label %56, label %55

55:                                               ; preds = %44, %33
  store i32 -12, ptr %2, align 4
  br label %77

56:                                               ; preds = %44
  br label %57

57:                                               ; preds = %56, %24
  %58 = load ptr, ptr %3, align 8, !tbaa !29
  %59 = getelementptr inbounds nuw %struct.DNXHDEncContext, ptr %58, i32 0, i32 15
  %60 = load i32, ptr %59, align 16, !tbaa !89
  %61 = load ptr, ptr %3, align 8, !tbaa !29
  %62 = getelementptr inbounds nuw %struct.DNXHDEncContext, ptr %61, i32 0, i32 16
  %63 = load i32, ptr %62, align 4, !tbaa !91
  %64 = sub nsw i32 %60, %63
  %65 = sub nsw i32 %64, 4
  %66 = load ptr, ptr %3, align 8, !tbaa !29
  %67 = getelementptr inbounds nuw %struct.DNXHDEncContext, ptr %66, i32 0, i32 20
  %68 = load i32, ptr %67, align 4, !tbaa !95
  %69 = sub i32 %65, %68
  %70 = mul i32 %69, 8
  %71 = load ptr, ptr %3, align 8, !tbaa !29
  %72 = getelementptr inbounds nuw %struct.DNXHDEncContext, ptr %71, i32 0, i32 30
  store i32 %70, ptr %72, align 16, !tbaa !173
  %73 = load ptr, ptr %3, align 8, !tbaa !29
  %74 = getelementptr inbounds nuw %struct.DNXHDEncContext, ptr %73, i32 0, i32 39
  store i32 1, ptr %74, align 4, !tbaa !119
  %75 = load ptr, ptr %3, align 8, !tbaa !29
  %76 = getelementptr inbounds nuw %struct.DNXHDEncContext, ptr %75, i32 0, i32 40
  store i32 2048, ptr %76, align 8, !tbaa !174
  store i32 0, ptr %2, align 4
  br label %77

77:                                               ; preds = %57, %55, %23
  %78 = load i32, ptr %2, align 4
  ret i32 %78
}