; Function Attrs: cold nounwind optsize uwtable
define internal fastcc range(i32 -12, 1) i32 @dnxhd_init_rc(ptr noundef captures(none) initializes((10576, 10584)) %0) unnamed_addr #0 {
  %2 = getelementptr inbounds nuw i8, ptr %0, i64 480
  %3 = load ptr, ptr %2, align 8, !tbaa !71
  %4 = getelementptr inbounds nuw i8, ptr %3, i64 440
  %5 = load i32, ptr %4, align 8, !tbaa !97
  %6 = add nsw i32 %5, 1
  %7 = getelementptr inbounds nuw i8, ptr %0, i64 572
  %8 = load i32, ptr %7, align 4, !tbaa !82
  %9 = mul nsw i32 %6, %8
  %10 = sext i32 %9 to i64
  %11 = tail call noalias ptr @av_calloc(i64 noundef %10, i64 noundef 8) #11
  %12 = getelementptr inbounds nuw i8, ptr %0, i64 10576
  store ptr %11, ptr %12, align 16, !tbaa !127
  %.not = icmp eq ptr %11, null
  br i1 %.not, label %40, label %13

13:                                               ; preds = %1
  %14 = load ptr, ptr %2, align 8, !tbaa !71
  %15 = getelementptr inbounds nuw i8, ptr %14, i64 284
  %16 = load i32, ptr %15, align 4, !tbaa !120
  %.not14 = icmp eq i32 %16, 2
  br i1 %.not14, label %27, label %17

17:                                               ; preds = %13
  %18 = load i32, ptr %7, align 4, !tbaa !82
  %19 = sext i32 %18 to i64
  %20 = tail call noalias ptr @av_calloc(i64 noundef %19, i64 noundef 8) #11
  %21 = getelementptr inbounds nuw i8, ptr %0, i64 10560
  store ptr %20, ptr %21, align 16, !tbaa !138
  %.not15 = icmp eq ptr %20, null
  br i1 %.not15, label %40, label %22

22:                                               ; preds = %17
  %23 = load i32, ptr %7, align 4, !tbaa !82
  %24 = sext i32 %23 to i64
  %25 = tail call noalias ptr @av_calloc(i64 noundef %24, i64 noundef 8) #11
  %26 = getelementptr inbounds nuw i8, ptr %0, i64 10568
  store ptr %25, ptr %26, align 8, !tbaa !139
  %.not16 = icmp eq ptr %25, null
  br i1 %.not16, label %40, label %27

27:                                               ; preds = %22, %13
  %28 = getelementptr inbounds nuw i8, ptr %0, i64 7312
  %29 = load i32, ptr %28, align 16, !tbaa !86
  %30 = getelementptr inbounds nuw i8, ptr %0, i64 7316
  %31 = load i32, ptr %30, align 4, !tbaa !88
  %32 = getelementptr inbounds nuw i8, ptr %0, i64 7332
  %33 = load i32, ptr %32, align 4, !tbaa !90
  %.neg18 = add i32 %29, 536870908
  %34 = add i32 %31, %33
  %35 = sub i32 %.neg18, %34
  %36 = shl i32 %35, 3
  %37 = getelementptr inbounds nuw i8, ptr %0, i64 10448
  store i32 %36, ptr %37, align 16, !tbaa !128
  %38 = getelementptr inbounds nuw i8, ptr %0, i64 10532
  store i32 1, ptr %38, align 4, !tbaa !122
  %39 = getelementptr inbounds nuw i8, ptr %0, i64 10536
  store i32 2048, ptr %39, align 8, !tbaa !121
  br label %40

40:                                               ; preds = %17, %22, %1, %27
  %.0 = phi i32 [ 0, %27 ], [ -12, %1 ], [ -12, %22 ], [ -12, %17 ]
  ret i32 %.0
}